ARM GAS  C:\Users\edward\AppData\Local\Temp\ccHVzNSY.s 			page 1


   1              		.syntax unified
   2              		.cpu cortex-m3
   3              		.fpu softvfp
   4              		.eabi_attribute 20, 1
   5              		.eabi_attribute 21, 1
   6              		.eabi_attribute 23, 3
   7              		.eabi_attribute 24, 1
   8              		.eabi_attribute 25, 1
   9              		.eabi_attribute 26, 1
  10              		.eabi_attribute 30, 1
  11              		.eabi_attribute 34, 1
  12              		.eabi_attribute 18, 4
  13              		.thumb
  14              		.syntax unified
  15              		.file	"main.c"
  16              		.text
  17              	.Ltext0:
  18              		.cfi_sections	.debug_frame
  19              		.section	.text.main,"ax",%progbits
  20              		.align	2
  21              		.global	main
  22              		.thumb
  23              		.thumb_func
  24              		.type	main, %function
  25              	main:
  26              	.LFB64:
  27              		.file 1 "main.c"
   1:main.c        **** #include "project.h"
   2:main.c        **** #include "stdio.h"
   3:main.c        **** 
   4:main.c        **** /* Project Defines */
   5:main.c        **** #define FALSE  0
   6:main.c        **** #define TRUE   1
   7:main.c        **** #define TRANSMIT_BUFFER_SIZE  16
   8:main.c        **** #define N_SAMPLES_TO_CAPTURE 2000
   9:main.c        **** 
  10:main.c        **** 
  11:main.c        **** /* Global data storage */
  12:main.c        **** int16 databuffer[N_SAMPLES_TO_CAPTURE];
  13:main.c        **** 
  14:main.c        **** 
  15:main.c        **** /*******************************************************************************
  16:main.c        **** * Function Name: main
  17:main.c        **** ********************************************************************************
  18:main.c        **** *
  19:main.c        **** * Summary:
  20:main.c        **** *  main() performs following functions:
  21:main.c        **** *  1: Starts the ADC and UART components.
  22:main.c        **** *  2: Checks for ADC end of conversion.  Stores latest result in output
  23:main.c        **** *     if conversion complete.
  24:main.c        **** *  3: Checks for UART input.
  25:main.c        **** *     On 'C' or 'c' received: transmits the last sample via the UART.
  26:main.c        **** *     On 'S' or 's' received: continuously transmits samples as they are completed.
  27:main.c        **** *     On 'X' or 'x' received: stops continuously transmitting samples.
  28:main.c        **** *     On 'E' or 'e' received: transmits a dummy byte of data.
  29:main.c        **** *
  30:main.c        **** * Parameters:
ARM GAS  C:\Users\edward\AppData\Local\Temp\ccHVzNSY.s 			page 2


  31:main.c        **** *  None.
  32:main.c        **** *
  33:main.c        **** * Return:
  34:main.c        **** *  None.
  35:main.c        **** *
  36:main.c        **** *******************************************************************************/
  37:main.c        **** int main()
  38:main.c        **** {
  28              		.loc 1 38 0
  29              		.cfi_startproc
  30              		@ args = 0, pretend = 0, frame = 16
  31              		@ frame_needed = 0, uses_anonymous_args = 0
  32 0000 30B5     		push	{r4, r5, lr}
  33              		.cfi_def_cfa_offset 12
  34              		.cfi_offset 4, -12
  35              		.cfi_offset 5, -8
  36              		.cfi_offset 14, -4
  37 0002 85B0     		sub	sp, sp, #20
  38              		.cfi_def_cfa_offset 32
  39:main.c        ****    /* Variable to store ADC result */
  40:main.c        ****     int16 Output;
  41:main.c        ****     /* Variable to store UART received character */
  42:main.c        ****     uint8 Ch;
  43:main.c        ****     /* Flags used to store transmit data commands */
  44:main.c        ****     uint8 ContinuouslySendData;
  45:main.c        ****     /* Transmit Buffer */
  46:main.c        ****     char TransmitBuffer[TRANSMIT_BUFFER_SIZE];
  47:main.c        ****     uint32 SampleCount;
  48:main.c        ****     uint8 BufferFull;
  49:main.c        ****     
  50:main.c        ****     WaveDAC8_1_Start();
  39              		.loc 1 50 0
  40 0004 FFF7FEFF 		bl	WaveDAC8_1_Start
  41              	.LVL0:
  51:main.c        ****     /* Start the components */
  52:main.c        ****     ADC_DelSig_1_Start();
  42              		.loc 1 52 0
  43 0008 FFF7FEFF 		bl	ADC_DelSig_1_Start
  44              	.LVL1:
  53:main.c        ****     UART_1_Start();
  45              		.loc 1 53 0
  46 000c FFF7FEFF 		bl	UART_1_Start
  47              	.LVL2:
  54:main.c        ****     
  55:main.c        ****     /* Initialize Variables */
  56:main.c        ****     ContinuouslySendData = FALSE;
  57:main.c        ****     
  58:main.c        ****     /* Start the ADC conversion */
  59:main.c        ****     ADC_DelSig_1_StartConvert();
  48              		.loc 1 59 0
  49 0010 FFF7FEFF 		bl	ADC_DelSig_1_StartConvert
  50              	.LVL3:
  60:main.c        ****     
  61:main.c        ****     /* Send message to verify COM port is connected properly */
  62:main.c        ****     UART_1_PutString("COM Port Open");
  51              		.loc 1 62 0
  52 0014 2248     		ldr	r0, .L13
ARM GAS  C:\Users\edward\AppData\Local\Temp\ccHVzNSY.s 			page 3


  53 0016 FFF7FEFF 		bl	UART_1_PutString
  54              	.LVL4:
  56:main.c        ****     
  55              		.loc 1 56 0
  56 001a 0025     		movs	r5, #0
  57              	.LVL5:
  58              	.L2:
  63:main.c        ****     
  64:main.c        ****     for(;;)
  65:main.c        ****     {        
  66:main.c        ****         /* Non-blocking call to get the latest data recieved  */
  67:main.c        ****         Ch = UART_1_GetChar();
  59              		.loc 1 67 0
  60 001c FFF7FEFF 		bl	UART_1_GetChar
  61              	.LVL6:
  68:main.c        ****         
  69:main.c        ****         /* Set flags based on UART command */
  70:main.c        ****         switch(Ch)
  62              		.loc 1 70 0
  63 0020 5338     		subs	r0, r0, #83
  64              	.LVL7:
  65 0022 2528     		cmp	r0, #37
  66 0024 18D8     		bhi	.L4
  67 0026 DFE800F0 		tbb	[pc, r0]
  68              	.L5:
  69 002a 15       		.byte	(.L10-.L5)/2
  70 002b 17       		.byte	(.L4-.L5)/2
  71 002c 17       		.byte	(.L4-.L5)/2
  72 002d 17       		.byte	(.L4-.L5)/2
  73 002e 17       		.byte	(.L4-.L5)/2
  74 002f 13       		.byte	(.L6-.L5)/2
  75 0030 17       		.byte	(.L4-.L5)/2
  76 0031 17       		.byte	(.L4-.L5)/2
  77 0032 17       		.byte	(.L4-.L5)/2
  78 0033 17       		.byte	(.L4-.L5)/2
  79 0034 17       		.byte	(.L4-.L5)/2
  80 0035 17       		.byte	(.L4-.L5)/2
  81 0036 17       		.byte	(.L4-.L5)/2
  82 0037 17       		.byte	(.L4-.L5)/2
  83 0038 17       		.byte	(.L4-.L5)/2
  84 0039 17       		.byte	(.L4-.L5)/2
  85 003a 17       		.byte	(.L4-.L5)/2
  86 003b 17       		.byte	(.L4-.L5)/2
  87 003c 17       		.byte	(.L4-.L5)/2
  88 003d 17       		.byte	(.L4-.L5)/2
  89 003e 17       		.byte	(.L4-.L5)/2
  90 003f 17       		.byte	(.L4-.L5)/2
  91 0040 17       		.byte	(.L4-.L5)/2
  92 0041 17       		.byte	(.L4-.L5)/2
  93 0042 17       		.byte	(.L4-.L5)/2
  94 0043 17       		.byte	(.L4-.L5)/2
  95 0044 17       		.byte	(.L4-.L5)/2
  96 0045 17       		.byte	(.L4-.L5)/2
  97 0046 17       		.byte	(.L4-.L5)/2
  98 0047 17       		.byte	(.L4-.L5)/2
  99 0048 17       		.byte	(.L4-.L5)/2
 100 0049 17       		.byte	(.L4-.L5)/2
ARM GAS  C:\Users\edward\AppData\Local\Temp\ccHVzNSY.s 			page 4


 101 004a 15       		.byte	(.L10-.L5)/2
 102 004b 17       		.byte	(.L4-.L5)/2
 103 004c 17       		.byte	(.L4-.L5)/2
 104 004d 17       		.byte	(.L4-.L5)/2
 105 004e 17       		.byte	(.L4-.L5)/2
 106 004f 13       		.byte	(.L6-.L5)/2
 107              		.p2align 1
 108              	.L6:
 109              	.LVL8:
  71:main.c        ****         {
  72:main.c        ****             case 0:
  73:main.c        ****                 /* No new data was recieved */
  74:main.c        ****                 break;
  75:main.c        ****             case 'S':
  76:main.c        ****             case 's':
  77:main.c        ****                 ContinuouslySendData = TRUE;
  78:main.c        ****                 SampleCount = 0;
  79:main.c        ****                 BufferFull = 0;
  80:main.c        ****                 break;
  81:main.c        ****             case 'X':
  82:main.c        ****             case 'x':
  83:main.c        ****                 ContinuouslySendData = FALSE;
 110              		.loc 1 83 0
 111 0050 0025     		movs	r5, #0
  84:main.c        ****                 break;
 112              		.loc 1 84 0
 113 0052 01E0     		b	.L4
 114              	.LVL9:
 115              	.L10:
  78:main.c        ****                 BufferFull = 0;
 116              		.loc 1 78 0
 117 0054 0024     		movs	r4, #0
 118              	.LVL10:
  77:main.c        ****                 SampleCount = 0;
 119              		.loc 1 77 0
 120 0056 0125     		movs	r5, #1
 121              	.LVL11:
 122              	.L4:
  85:main.c        ****             default:
  86:main.c        ****                 /* Place error handling code here */
  87:main.c        ****                 break;    
  88:main.c        ****         }
  89:main.c        ****         
  90:main.c        ****         /* Check to see if an ADC conversion has completed */
  91:main.c        ****         if(ADC_DelSig_1_IsEndConversion(ADC_DelSig_1_RETURN_STATUS))
 123              		.loc 1 91 0
 124 0058 0120     		movs	r0, #1
 125 005a FFF7FEFF 		bl	ADC_DelSig_1_IsEndConversion
 126              	.LVL12:
 127 005e 0028     		cmp	r0, #0
 128 0060 DCD0     		beq	.L2
  92:main.c        ****         {
  93:main.c        ****             if(ContinuouslySendData)
 129              		.loc 1 93 0
 130 0062 002D     		cmp	r5, #0
 131 0064 DAD0     		beq	.L2
  94:main.c        ****             {
ARM GAS  C:\Users\edward\AppData\Local\Temp\ccHVzNSY.s 			page 5


  95:main.c        ****                 /* Use the GetResult16 API to get an 8 bit unsigned result in
  96:main.c        ****                  * single ended mode.  The API CountsTo_mVolts is then used
  97:main.c        ****                  * to convert the ADC counts into mV before transmitting via
  98:main.c        ****                  * the UART.  See the datasheet API description for more
  99:main.c        ****                  * details */
 100:main.c        ****                 Output = ADC_DelSig_1_GetResult16();
 132              		.loc 1 100 0
 133 0066 FFF7FEFF 		bl	ADC_DelSig_1_GetResult16
 134              	.LVL13:
 101:main.c        **** 
 102:main.c        ****                 /* Copy the sample to the buffer */
 103:main.c        ****                 databuffer[SampleCount] = Output;
 135              		.loc 1 103 0
 136 006a 0E4B     		ldr	r3, .L13+4
 137 006c 23F81400 		strh	r0, [r3, r4, lsl #1]	@ movhi
 104:main.c        **** 
 105:main.c        ****                 //sprintf(TransmitBuffer, "%d\r\n", databuffer[SampleCount]);
 106:main.c        ****                 //UART_1_PutString(TransmitBuffer);
 107:main.c        ****                 
 108:main.c        ****                 /* Count 10000 samples and stop */
 109:main.c        ****                 SampleCount++;
 138              		.loc 1 109 0
 139 0070 0134     		adds	r4, r4, #1
 140              	.LVL14:
 110:main.c        ****                 if (SampleCount >= N_SAMPLES_TO_CAPTURE)
 141              		.loc 1 110 0
 142 0072 B4F5FA6F 		cmp	r4, #2000
 143 0076 0CD2     		bcs	.L11
 144 0078 D0E7     		b	.L2
 145              	.LVL15:
 146              	.L9:
 111:main.c        ****                 {
 112:main.c        ****                     ContinuouslySendData = FALSE;
 113:main.c        **** 
 114:main.c        ****                     for (SampleCount=0; SampleCount<N_SAMPLES_TO_CAPTURE; SampleCount++)
 115:main.c        ****                     {
 116:main.c        ****                         /* Format ADC result for transmition */
 117:main.c        ****                         /* Send out the data */
 118:main.c        ****                         sprintf(TransmitBuffer, "%d\r\n", databuffer[SampleCount]);
 147              		.loc 1 118 0 discriminator 3
 148 007a 0A4B     		ldr	r3, .L13+4
 149 007c 33F91420 		ldrsh	r2, [r3, r4, lsl #1]
 150 0080 0949     		ldr	r1, .L13+8
 151 0082 6846     		mov	r0, sp
 152 0084 FFF7FEFF 		bl	sprintf
 153              	.LVL16:
 119:main.c        ****                         UART_1_PutString(TransmitBuffer);
 154              		.loc 1 119 0 discriminator 3
 155 0088 6846     		mov	r0, sp
 156 008a FFF7FEFF 		bl	UART_1_PutString
 157              	.LVL17:
 114:main.c        ****                     {
 158              		.loc 1 114 0 discriminator 3
 159 008e 0134     		adds	r4, r4, #1
 160              	.LVL18:
 161 0090 00E0     		b	.L8
 162              	.LVL19:
ARM GAS  C:\Users\edward\AppData\Local\Temp\ccHVzNSY.s 			page 6


 163              	.L11:
 164 0092 0024     		movs	r4, #0
 165              	.LVL20:
 166              	.L8:
 114:main.c        ****                     {
 167              		.loc 1 114 0 is_stmt 0 discriminator 1
 168 0094 B4F5FA6F 		cmp	r4, #2000
 169 0098 EFD3     		bcc	.L9
 120:main.c        ****                     }
 121:main.c        ****                     SampleCount = 0;
 170              		.loc 1 121 0 is_stmt 1
 171 009a 0024     		movs	r4, #0
 172              	.LVL21:
 112:main.c        **** 
 173              		.loc 1 112 0
 174 009c 2546     		mov	r5, r4
 175              	.LVL22:
 176 009e BDE7     		b	.L2
 177              	.L14:
 178              		.align	2
 179              	.L13:
 180 00a0 00000000 		.word	.LC0
 181 00a4 00000000 		.word	databuffer
 182 00a8 10000000 		.word	.LC1
 183              		.cfi_endproc
 184              	.LFE64:
 185              		.size	main, .-main
 186              		.comm	databuffer,4000,4
 187              		.section	.rodata.str1.4,"aMS",%progbits,1
 188              		.align	2
 189              	.LC0:
 190 0000 434F4D20 		.ascii	"COM Port Open\000"
 190      506F7274 
 190      204F7065 
 190      6E00
 191 000e 0000     		.space	2
 192              	.LC1:
 193 0010 25640D0A 		.ascii	"%d\015\012\000"
 193      00
 194              		.text
 195              	.Letext0:
 196              		.file 2 "c:\\program files (x86)\\cypress\\psoc creator\\4.1\\psoc creator\\import\\gnu\\arm\\5.4.
 197              		.file 3 "c:\\program files (x86)\\cypress\\psoc creator\\4.1\\psoc creator\\import\\gnu\\arm\\5.4.
 198              		.file 4 "Generated_Source\\PSoC5/cytypes.h"
 199              		.file 5 "Generated_Source\\PSoC5/core_cm3.h"
 200              		.file 6 "Generated_Source\\PSoC5/WaveDAC8_1.h"
 201              		.file 7 "Generated_Source\\PSoC5/ADC_DelSig_1.h"
 202              		.file 8 "Generated_Source\\PSoC5/UART_1.h"
 203              		.file 9 "c:\\program files (x86)\\cypress\\psoc creator\\4.1\\psoc creator\\import\\gnu\\arm\\5.4.